; Function Attrs: mustprogress sspstrong uwtable
define internal void @_ZL27__itt_metadata_add_init_3_0PK13___itt_domain9___itt_idP20___itt_string_handle19__itt_metadata_typemPv(ptr noundef %0, ptr noundef readonly byval(%struct.___itt_id) align 8 captures(none) %1, ptr noundef %2, i32 noundef %3, i64 noundef %4, ptr noundef %5) #0 {
  %7 = load volatile i64, ptr getelementptr inbounds nuw (i8, ptr @__itt__ittapi_global, i64 32), align 8, !tbaa !3
  %8 = icmp eq i64 %7, 0
  %9 = load ptr, ptr getelementptr inbounds nuw (i8, ptr @__itt__ittapi_global, i64 136), align 8
  %10 = icmp eq ptr %9, null
  %or.cond = select i1 %8, i1 %10, i1 false
  br i1 %or.cond, label %11, label %12

11:                                               ; preds = %6
  tail call void @ITT_DoOneTimeInitialization()
  br label %12

12:                                               ; preds = %11, %6
  %13 = load ptr, ptr @__itt_metadata_add_ptr__3_0, align 8, !tbaa !21
  %14 = icmp ne ptr %13, null
  %15 = icmp ne ptr %13, @_ZL27__itt_metadata_add_init_3_0PK13___itt_domain9___itt_idP20___itt_string_handle19__itt_metadata_typemPv
  %or.cond3 = and i1 %14, %15
  br i1 %or.cond3, label %16, label %17

16:                                               ; preds = %12
  tail call void %13(ptr noundef %0, ptr noundef nonnull byval(%struct.___itt_id) align 8 %1, ptr noundef %2, i32 noundef %3, i64 noundef %4, ptr noundef %5)
  br label %17

17:                                               ; preds = %12, %16
  ret void
}